target datalayout = "e-m:e-p270:32:32-p271:32:32-p272:64:64-i64:64-i128:128-f80:128-n8:16:32:64-S128"
target triple = "x86_64-pc-linux-gnu"

%struct.cfl_ctx = type { [1024 x i16], [1024 x i16], [2 x i32], i32, [2 x [32 x i16]], i32, i32, i32, i32, i32, i32 }
%struct.macroblockd = type { i32, i32, i32, i8, [3 x %struct.macroblockd_plane], %struct.TileInfo, ptr, i8, i8, i8, i8, ptr, ptr, ptr, ptr, ptr, i32, i32, i32, i32, i32, [2 x ptr], ptr, [3 x ptr], [3 x [32 x i8]], ptr, [32 x i8], ptr, ptr, [32 x i8], [3 x %struct.WienerInfo], [3 x %struct.SgrprojInfo], i8, i8, [29 x [8 x %struct.candidate_mv]], [29 x [8 x i16]], i8, i8, [8 x i8], ptr, i32, [8 x i32], [8 x i32], i32, i32, ptr, ptr, i8, [4 x i8], [4 x i8], [7 x i8], [32768 x i8], %struct.cfl_ctx, [2 x i16], ptr, [2 x ptr] }
%struct.macroblockd_plane = type { i8, i32, i32, %struct.buf_2d, [2 x %struct.buf_2d], ptr, ptr, [8 x [2 x i16]], ptr, i8, i8, [8 x [19 x ptr]], [8 x [19 x ptr]] }
%struct.buf_2d = type { ptr, ptr, i32, i32, i32 }
%struct.TileInfo = type { i32, i32, i32, i32, i32, i32 }
%struct.WienerInfo = type { [8 x i16], [8 x i16] }
%struct.SgrprojInfo = type { i32, [2 x i32] }
%struct.candidate_mv = type { %union.int_mv, %union.int_mv }
%union.int_mv = type { i32 }
%struct.yv12_buffer_config = type { %union.anon, %union.anon.0, %union.anon.2, %union.anon.4, %union.anon.6, %union.anon.8, i32, [3 x ptr], ptr, i32, ptr, i64, i32, i64, i32, i32, i32, i32, i32, i32, i8, i32, i32, i32, i32, i32, i32, ptr }
%union.anon = type { %struct.anon }
%struct.anon = type { i32, i32 }
%union.anon.0 = type { %struct.anon.1 }
%struct.anon.1 = type { i32, i32 }
%union.anon.2 = type { %struct.anon.3 }
%struct.anon.3 = type { i32, i32 }
%union.anon.4 = type { %struct.anon.5 }
%struct.anon.5 = type { i32, i32 }
%union.anon.6 = type { %struct.anon.7 }
%struct.anon.7 = type { i32, i32 }
%union.anon.8 = type { %struct.anon.9 }
%struct.anon.9 = type { ptr, ptr, ptr }

@tx_size_wide = internal constant [19 x i32] [i32 4, i32 8, i32 16, i32 32, i32 64, i32 4, i32 8, i32 8, i32 16, i32 16, i32 32, i32 32, i32 64, i32 4, i32 16, i32 8, i32 32, i32 16, i32 64], align 16
@tx_size_high = internal constant [19 x i32] [i32 4, i32 8, i32 16, i32 32, i32 64, i32 8, i32 4, i32 16, i32 8, i32 32, i32 16, i32 64, i32 32, i32 16, i32 4, i32 32, i32 8, i32 64, i32 16], align 16
@block_size_high = internal constant [22 x i8] c"\04\08\04\08\10\08\10 \10 @ @\80@\80\10\04 \08@\10", align 16
@block_size_wide = internal constant [22 x i8] c"\04\04\08\08\08\10\10\10   @@@\80\80\04\10\08 \10@", align 16

; Function Attrs: nounwind uwtable
define hidden ptr @cfl_get_luma_subsampling_444_lbd_c(i8 noundef zeroext %0) #0 {
  %2 = alloca i8, align 1
  store i8 %0, ptr %2, align 1
  %3 = load i8, ptr %2, align 1
  %4 = zext i8 %3 to i64
  %5 = getelementptr inbounds [19 x ptr], ptr @cfl_get_luma_subsampling_444_lbd_c.subfn_444, i64 0, i64 %4
  %6 = load ptr, ptr %5, align 8
  ret ptr %6
}

; Function Attrs: nounwind uwtable
define hidden ptr @cfl_get_luma_subsampling_422_lbd_c(i8 noundef zeroext %0) #0 {
  %2 = alloca i8, align 1
  store i8 %0, ptr %2, align 1
  %3 = load i8, ptr %2, align 1
  %4 = zext i8 %3 to i64
  %5 = getelementptr inbounds [19 x ptr], ptr @cfl_get_luma_subsampling_422_lbd_c.subfn_422, i64 0, i64 %4
  %6 = load ptr, ptr %5, align 8
  ret ptr %6
}

; Function Attrs: nounwind uwtable
define hidden ptr @cfl_get_luma_subsampling_420_lbd_c(i8 noundef zeroext %0) #0 {
  %2 = alloca i8, align 1
  store i8 %0, ptr %2, align 1
  %3 = load i8, ptr %2, align 1
  %4 = zext i8 %3 to i64
  %5 = getelementptr inbounds [19 x ptr], ptr @cfl_get_luma_subsampling_420_lbd_c.subfn_420, i64 0, i64 %4
  %6 = load ptr, ptr %5, align 8
  ret ptr %6
}

; Function Attrs: nounwind uwtable
define hidden ptr @cfl_get_luma_subsampling_444_hbd_c(i8 noundef zeroext %0) #0 {
  %2 = alloca i8, align 1
  store i8 %0, ptr %2, align 1
  %3 = load i8, ptr %2, align 1
  %4 = zext i8 %3 to i64
  %5 = getelementptr inbounds [19 x ptr], ptr @cfl_get_luma_subsampling_444_hbd_c.subfn_444, i64 0, i64 %4
  %6 = load ptr, ptr %5, align 8
  ret ptr %6
}

; Function Attrs: nounwind uwtable
define hidden ptr @cfl_get_luma_subsampling_422_hbd_c(i8 noundef zeroext %0) #0 {
  %2 = alloca i8, align 1
  store i8 %0, ptr %2, align 1
  %3 = load i8, ptr %2, align 1
  %4 = zext i8 %3 to i64
  %5 = getelementptr inbounds [19 x ptr], ptr @cfl_get_luma_subsampling_422_hbd_c.subfn_422, i64 0, i64 %4
  %6 = load ptr, ptr %5, align 8
  ret ptr %6
}

; Function Attrs: nounwind uwtable
define hidden ptr @cfl_get_luma_subsampling_420_hbd_c(i8 noundef zeroext %0) #0 {
  %2 = alloca i8, align 1
  store i8 %0, ptr %2, align 1
  %3 = load i8, ptr %2, align 1
  %4 = zext i8 %3 to i64
  %5 = getelementptr inbounds [19 x ptr], ptr @cfl_get_luma_subsampling_420_hbd_c.subfn_420, i64 0, i64 %4
  %6 = load ptr, ptr %5, align 8
  ret ptr %6
}

; Function Attrs: nounwind uwtable
define internal ptr @cfl_subsampling_lbd(i8 noundef zeroext %0, i32 noundef %1, i32 noundef %2) #0 {
  %4 = alloca ptr, align 8
  %5 = alloca i8, align 1
  %6 = alloca i32, align 4
  %7 = alloca i32, align 4
  store i8 %0, ptr %5, align 1
  store i32 %1, ptr %6, align 4
  store i32 %2, ptr %7, align 4
  %8 = load i32, ptr %6, align 4
  %9 = icmp eq i32 %8, 1
  br i1 %9, label %10, label %19

10:                                               ; preds = %3
  %11 = load i32, ptr %7, align 4
  %12 = icmp eq i32 %11, 1
  br i1 %12, label %13, label %16

13:                                               ; preds = %10
  %14 = load i8, ptr %5, align 1
  %15 = call ptr @cfl_get_luma_subsampling_420_lbd_c(i8 noundef zeroext %14)
  store ptr %15, ptr %4, align 8
  br label %22

16:                                               ; preds = %10
  %17 = load i8, ptr %5, align 1
  %18 = call ptr @cfl_get_luma_subsampling_422_lbd_c(i8 noundef zeroext %17)
  store ptr %18, ptr %4, align 8
  br label %22

19:                                               ; preds = %3
  %20 = load i8, ptr %5, align 1
  %21 = call ptr @cfl_get_luma_subsampling_444_lbd_c(i8 noundef zeroext %20)
  store ptr %21, ptr %4, align 8
  br label %22

22:                                               ; preds = %19, %16, %13
  %23 = load ptr, ptr %4, align 8
  ret ptr %23
}

; Function Attrs: nounwind uwtable
define internal ptr @cfl_subsampling_hbd(i8 noundef zeroext %0, i32 noundef %1, i32 noundef %2) #0 {
  %4 = alloca ptr, align 8
  %5 = alloca i8, align 1
  %6 = alloca i32, align 4
  %7 = alloca i32, align 4
  store i8 %0, ptr %5, align 1
  store i32 %1, ptr %6, align 4
  store i32 %2, ptr %7, align 4
  %8 = load i32, ptr %6, align 4
  %9 = icmp eq i32 %8, 1
  br i1 %9, label %10, label %19

10:                                               ; preds = %3
  %11 = load i32, ptr %7, align 4
  %12 = icmp eq i32 %11, 1
  br i1 %12, label %13, label %16

13:                                               ; preds = %10
  %14 = load i8, ptr %5, align 1
  %15 = call ptr @cfl_get_luma_subsampling_420_hbd_c(i8 noundef zeroext %14)
  store ptr %15, ptr %4, align 8
  br label %22

16:                                               ; preds = %10
  %17 = load i8, ptr %5, align 1
  %18 = call ptr @cfl_get_luma_subsampling_422_hbd_c(i8 noundef zeroext %17)
  store ptr %18, ptr %4, align 8
  br label %22

19:                                               ; preds = %3
  %20 = load i8, ptr %5, align 1
  %21 = call ptr @cfl_get_luma_subsampling_444_hbd_c(i8 noundef zeroext %20)
  store ptr %21, ptr %4, align 8
  br label %22

22:                                               ; preds = %19, %16, %13
  %23 = load ptr, ptr %4, align 8
  ret ptr %23
}

; Function Attrs: nounwind uwtable
define internal void @cfl_store(ptr noundef %0, ptr noundef %1, i32 noundef %2, i32 noundef %3, i32 noundef %4, i8 noundef zeroext %5, i32 noundef %6) #0 {
  %8 = alloca ptr, align 8
  %9 = alloca ptr, align 8
  %10 = alloca i32, align 4
  %11 = alloca i32, align 4
  %12 = alloca i32, align 4
  %13 = alloca i8, align 1
  %14 = alloca i32, align 4
  %15 = alloca i32, align 4
  %16 = alloca i32, align 4
  %17 = alloca i32, align 4
  %18 = alloca i32, align 4
  %19 = alloca i32, align 4
  %20 = alloca i32, align 4
  %21 = alloca i32, align 4
  %22 = alloca i32, align 4
  %23 = alloca i32, align 4
  %24 = alloca ptr, align 8
  store ptr %0, ptr %8, align 8
  store ptr %1, ptr %9, align 8
  store i32 %2, ptr %10, align 4
  store i32 %3, ptr %11, align 4
  store i32 %4, ptr %12, align 4
  store i8 %5, ptr %13, align 1
  store i32 %6, ptr %14, align 4
  %25 = load i8, ptr %13, align 1
  %26 = zext i8 %25 to i64
  %27 = getelementptr inbounds [19 x i32], ptr @tx_size_wide, i64 0, i64 %26
  %28 = load i32, ptr %27, align 4
  store i32 %28, ptr %15, align 4
  %29 = load i8, ptr %13, align 1
  %30 = zext i8 %29 to i64
  %31 = getelementptr inbounds [19 x i32], ptr @tx_size_high, i64 0, i64 %30
  %32 = load i32, ptr %31, align 4
  store i32 %32, ptr %16, align 4
  store i32 2, ptr %17, align 4
  %33 = load ptr, ptr %8, align 8
  %34 = getelementptr inbounds nuw %struct.cfl_ctx, ptr %33, i32 0, i32 8
  %35 = load i32, ptr %34, align 4
  store i32 %35, ptr %18, align 4
  %36 = load ptr, ptr %8, align 8
  %37 = getelementptr inbounds nuw %struct.cfl_ctx, ptr %36, i32 0, i32 9
  %38 = load i32, ptr %37, align 4
  store i32 %38, ptr %19, align 4
  %39 = load i32, ptr %11, align 4
  %40 = load i32, ptr %19, align 4
  %41 = sub nsw i32 2, %40
  %42 = shl i32 %39, %41
  store i32 %42, ptr %20, align 4
  %43 = load i32, ptr %12, align 4
  %44 = load i32, ptr %18, align 4
  %45 = sub nsw i32 2, %44
  %46 = shl i32 %43, %45
  store i32 %46, ptr %21, align 4
  %47 = load i32, ptr %16, align 4
  %48 = load i32, ptr %19, align 4
  %49 = ashr i32 %47, %48
  store i32 %49, ptr %22, align 4
  %50 = load i32, ptr %15, align 4
  %51 = load i32, ptr %18, align 4
  %52 = ashr i32 %50, %51
  store i32 %52, ptr %23, align 4
  %53 = load ptr, ptr %8, align 8
  %54 = getelementptr inbounds nuw %struct.cfl_ctx, ptr %53, i32 0, i32 7
  store i32 0, ptr %54, align 4
  %55 = load i32, ptr %12, align 4
  %56 = icmp eq i32 %55, 0
  br i1 %56, label %57, label %67

57:                                               ; preds = %7
  %58 = load i32, ptr %11, align 4
  %59 = icmp eq i32 %58, 0
  br i1 %59, label %60, label %67

60:                                               ; preds = %57
  %61 = load i32, ptr %23, align 4
  %62 = load ptr, ptr %8, align 8
  %63 = getelementptr inbounds nuw %struct.cfl_ctx, ptr %62, i32 0, i32 6
  store i32 %61, ptr %63, align 4
  %64 = load i32, ptr %22, align 4
  %65 = load ptr, ptr %8, align 8
  %66 = getelementptr inbounds nuw %struct.cfl_ctx, ptr %65, i32 0, i32 5
  store i32 %64, ptr %66, align 4
  br label %106

67:                                               ; preds = %57, %7
  %68 = load i32, ptr %21, align 4
  %69 = load i32, ptr %23, align 4
  %70 = add nsw i32 %68, %69
  %71 = load ptr, ptr %8, align 8
  %72 = getelementptr inbounds nuw %struct.cfl_ctx, ptr %71, i32 0, i32 6
  %73 = load i32, ptr %72, align 4
  %74 = icmp sgt i32 %70, %73
  br i1 %74, label %75, label %79

75:                                               ; preds = %67
  %76 = load i32, ptr %21, align 4
  %77 = load i32, ptr %23, align 4
  %78 = add nsw i32 %76, %77
  br label %83

79:                                               ; preds = %67
  %80 = load ptr, ptr %8, align 8
  %81 = getelementptr inbounds nuw %struct.cfl_ctx, ptr %80, i32 0, i32 6
  %82 = load i32, ptr %81, align 4
  br label %83

83:                                               ; preds = %79, %75
  %84 = phi i32 [ %78, %75 ], [ %82, %79 ]
  %85 = load ptr, ptr %8, align 8
  %86 = getelementptr inbounds nuw %struct.cfl_ctx, ptr %85, i32 0, i32 6
  store i32 %84, ptr %86, align 4
  %87 = load i32, ptr %20, align 4
  %88 = load i32, ptr %22, align 4
  %89 = add nsw i32 %87, %88
  %90 = load ptr, ptr %8, align 8
  %91 = getelementptr inbounds nuw %struct.cfl_ctx, ptr %90, i32 0, i32 5
  %92 = load i32, ptr %91, align 4
  %93 = icmp sgt i32 %89, %92
  br i1 %93, label %94, label %98

94:                                               ; preds = %83
  %95 = load i32, ptr %20, align 4
  %96 = load i32, ptr %22, align 4
  %97 = add nsw i32 %95, %96
  br label %102

98:                                               ; preds = %83
  %99 = load ptr, ptr %8, align 8
  %100 = getelementptr inbounds nuw %struct.cfl_ctx, ptr %99, i32 0, i32 5
  %101 = load i32, ptr %100, align 4
  br label %102

102:                                              ; preds = %98, %94
  %103 = phi i32 [ %97, %94 ], [ %101, %98 ]
  %104 = load ptr, ptr %8, align 8
  %105 = getelementptr inbounds nuw %struct.cfl_ctx, ptr %104, i32 0, i32 5
  store i32 %103, ptr %105, align 4
  br label %106

106:                                              ; preds = %102, %60
  %107 = load ptr, ptr %8, align 8
  %108 = getelementptr inbounds nuw %struct.cfl_ctx, ptr %107, i32 0, i32 0
  %109 = getelementptr inbounds [1024 x i16], ptr %108, i64 0, i64 0
  %110 = load i32, ptr %20, align 4
  %111 = mul nsw i32 %110, 32
  %112 = load i32, ptr %21, align 4
  %113 = add nsw i32 %111, %112
  %114 = sext i32 %113 to i64
  %115 = getelementptr inbounds i16, ptr %109, i64 %114
  store ptr %115, ptr %24, align 8
  %116 = load i32, ptr %14, align 4
  %117 = icmp ne i32 %116, 0
  br i1 %117, label %118, label %129

118:                                              ; preds = %106
  %119 = load i8, ptr %13, align 1
  %120 = load i32, ptr %18, align 4
  %121 = load i32, ptr %19, align 4
  %122 = call ptr @cfl_subsampling_hbd(i8 noundef zeroext %119, i32 noundef %120, i32 noundef %121)
  %123 = load ptr, ptr %9, align 8
  %124 = ptrtoint ptr %123 to i64
  %125 = shl i64 %124, 1
  %126 = inttoptr i64 %125 to ptr
  %127 = load i32, ptr %10, align 4
  %128 = load ptr, ptr %24, align 8
  call void %122(ptr noundef %126, i32 noundef %127, ptr noundef %128)
  br label %137

129:                                              ; preds = %106
  %130 = load i8, ptr %13, align 1
  %131 = load i32, ptr %18, align 4
  %132 = load i32, ptr %19, align 4
  %133 = call ptr @cfl_subsampling_lbd(i8 noundef zeroext %130, i32 noundef %131, i32 noundef %132)
  %134 = load ptr, ptr %9, align 8
  %135 = load i32, ptr %10, align 4
  %136 = load ptr, ptr %24, align 8
  call void %133(ptr noundef %134, i32 noundef %135, ptr noundef %136)
  br label %137

137:                                              ; preds = %129, %118
  ret void
}

; Function Attrs: nounwind uwtable
define internal i32 @is_cur_buf_hbd(ptr noundef %0) #0 {
  %2 = alloca ptr, align 8
  store ptr %0, ptr %2, align 8
  %3 = load ptr, ptr %2, align 8
  %4 = getelementptr inbounds nuw %struct.macroblockd, ptr %3, i32 0, i32 22
  %5 = load ptr, ptr %4, align 8
  %6 = getelementptr inbounds nuw %struct.yv12_buffer_config, ptr %5, i32 0, i32 26
  %7 = load i32, ptr %6, align 8
  %8 = and i32 %7, 8
  %9 = icmp ne i32 %8, 0
  %10 = select i1 %9, i32 1, i32 0
  ret i32 %10
}

; Function Attrs: nounwind uwtable
define internal void @sub8x8_adjust_offset(ptr noundef %0, i32 noundef %1, i32 noundef %2, ptr noundef %3, ptr noundef %4) #0 {
  %6 = alloca ptr, align 8
  %7 = alloca i32, align 4
  %8 = alloca i32, align 4
  %9 = alloca ptr, align 8
  %10 = alloca ptr, align 8
  store ptr %0, ptr %6, align 8
  store i32 %1, ptr %7, align 4
  store i32 %2, ptr %8, align 4
  store ptr %3, ptr %9, align 8
  store ptr %4, ptr %10, align 8
  %11 = load i32, ptr %7, align 4
  %12 = and i32 %11, 1
  %13 = icmp ne i32 %12, 0
  br i1 %13, label %14, label %23

14:                                               ; preds = %5
  %15 = load ptr, ptr %6, align 8
  %16 = getelementptr inbounds nuw %struct.cfl_ctx, ptr %15, i32 0, i32 9
  %17 = load i32, ptr %16, align 4
  %18 = icmp ne i32 %17, 0
  br i1 %18, label %19, label %23

19:                                               ; preds = %14
  %20 = load ptr, ptr %9, align 8
  %21 = load i32, ptr %20, align 4
  %22 = add nsw i32 %21, 1
  store i32 %22, ptr %20, align 4
  br label %23

23:                                               ; preds = %19, %14, %5
  %24 = load i32, ptr %8, align 4
  %25 = and i32 %24, 1
  %26 = icmp ne i32 %25, 0
  br i1 %26, label %27, label %36

27:                                               ; preds = %23
  %28 = load ptr, ptr %6, align 8
  %29 = getelementptr inbounds nuw %struct.cfl_ctx, ptr %28, i32 0, i32 8
  %30 = load i32, ptr %29, align 4
  %31 = icmp ne i32 %30, 0
  br i1 %31, label %32, label %36

32:                                               ; preds = %27
  %33 = load ptr, ptr %10, align 8
  %34 = load i32, ptr %33, align 4
  %35 = add nsw i32 %34, 1
  store i32 %35, ptr %33, align 4
  br label %36

36:                                               ; preds = %32, %27, %23
  ret void
}

; Function Attrs: nounwind uwtable
define hidden void @cfl_store_tx(ptr noundef %0, i32 noundef %1, i32 noundef %2, i8 noundef zeroext %3, i8 noundef zeroext %4) #0 {
  %6 = alloca ptr, align 8
  %7 = alloca i32, align 4
  %8 = alloca i32, align 4
  %9 = alloca i8, align 1
  %10 = alloca i8, align 1
  %11 = alloca ptr, align 8
  %12 = alloca ptr, align 8
  %13 = alloca ptr, align 8
  store ptr %0, ptr %6, align 8
  store i32 %1, ptr %7, align 4
  store i32 %2, ptr %8, align 4
  store i8 %3, ptr %9, align 1
  store i8 %4, ptr %10, align 1
  %14 = load ptr, ptr %6, align 8
  %15 = getelementptr inbounds nuw %struct.macroblockd, ptr %14, i32 0, i32 52
  store ptr %15, ptr %11, align 8
  %16 = load ptr, ptr %6, align 8
  %17 = getelementptr inbounds nuw %struct.macroblockd, ptr %16, i32 0, i32 4
  %18 = getelementptr inbounds [3 x %struct.macroblockd_plane], ptr %17, i64 0, i64 0
  store ptr %18, ptr %12, align 8
  %19 = load ptr, ptr %12, align 8
  %20 = getelementptr inbounds nuw %struct.macroblockd_plane, ptr %19, i32 0, i32 3
  %21 = getelementptr inbounds nuw %struct.buf_2d, ptr %20, i32 0, i32 0
  %22 = load ptr, ptr %21, align 8
  %23 = load i32, ptr %7, align 4
  %24 = load ptr, ptr %12, align 8
  %25 = getelementptr inbounds nuw %struct.macroblockd_plane, ptr %24, i32 0, i32 3
  %26 = getelementptr inbounds nuw %struct.buf_2d, ptr %25, i32 0, i32 4
  %27 = load i32, ptr %26, align 8
  %28 = mul nsw i32 %23, %27
  %29 = load i32, ptr %8, align 4
  %30 = add nsw i32 %28, %29
  %31 = shl i32 %30, 2
  %32 = sext i32 %31 to i64
  %33 = getelementptr inbounds i8, ptr %22, i64 %32
  store ptr %33, ptr %13, align 8
  %34 = load i8, ptr %10, align 1
  %35 = zext i8 %34 to i64
  %36 = getelementptr inbounds [22 x i8], ptr @block_size_high, i64 0, i64 %35
  %37 = load i8, ptr %36, align 1
  %38 = zext i8 %37 to i32
  %39 = icmp eq i32 %38, 4
  br i1 %39, label %47, label %40

40:                                               ; preds = %5
  %41 = load i8, ptr %10, align 1
  %42 = zext i8 %41 to i64
  %43 = getelementptr inbounds [22 x i8], ptr @block_size_wide, i64 0, i64 %42
  %44 = load i8, ptr %43, align 1
  %45 = zext i8 %44 to i32
  %46 = icmp eq i32 %45, 4
  br i1 %46, label %47, label %55

47:                                               ; preds = %40, %5
  %48 = load ptr, ptr %11, align 8
  %49 = load ptr, ptr %6, align 8
  %50 = getelementptr inbounds nuw %struct.macroblockd, ptr %49, i32 0, i32 0
  %51 = load i32, ptr %50, align 16
  %52 = load ptr, ptr %6, align 8
  %53 = getelementptr inbounds nuw %struct.macroblockd, ptr %52, i32 0, i32 1
  %54 = load i32, ptr %53, align 4
  call void @sub8x8_adjust_offset(ptr noundef %48, i32 noundef %51, i32 noundef %54, ptr noundef %7, ptr noundef %8)
  br label %55

55:                                               ; preds = %47, %40
  %56 = load ptr, ptr %11, align 8
  %57 = load ptr, ptr %13, align 8
  %58 = load ptr, ptr %12, align 8
  %59 = getelementptr inbounds nuw %struct.macroblockd_plane, ptr %58, i32 0, i32 3
  %60 = getelementptr inbounds nuw %struct.buf_2d, ptr %59, i32 0, i32 4
  %61 = load i32, ptr %60, align 8
  %62 = load i32, ptr %7, align 4
  %63 = load i32, ptr %8, align 4
  %64 = load i8, ptr %9, align 1
  %65 = load ptr, ptr %6, align 8
  %66 = call i32 @is_cur_buf_hbd(ptr noundef %65)
  call void @cfl_store(ptr noundef %56, ptr noundef %57, i32 noundef %61, i32 noundef %62, i32 noundef %63, i8 noundef zeroext %64, i32 noundef %66)
  ret void
}