; Function Attrs: nounwind uwtable
define hidden void @cfl_store_tx(ptr noundef %0, i32 noundef %1, i32 noundef %2, i8 noundef zeroext %3, i8 noundef zeroext %4) local_unnamed_addr #7 {
  %6 = getelementptr inbounds nuw i8, ptr %0, i64 43536
  %7 = getelementptr inbounds i8, ptr %0, i64 32
  %8 = load ptr, ptr %7, align 8
  %9 = getelementptr inbounds i8, ptr %0, i64 56
  %10 = load i32, ptr %9, align 8
  %11 = zext nneg i8 %4 to i64
  %12 = shl nuw i64 1, %11
  %13 = and i64 %12, 196615
  %or.cond = icmp eq i64 %13, 0
  br i1 %or.cond, label %sub8x8_adjust_offset.exit, label %14

14:                                               ; preds = %5
  %15 = load i32, ptr %0, align 16
  %16 = getelementptr inbounds nuw i8, ptr %0, i64 4
  %17 = load i32, ptr %16, align 4
  %18 = and i32 %15, 1
  %.not.i = icmp eq i32 %18, 0
  br i1 %.not.i, label %23, label %19

19:                                               ; preds = %14
  %20 = getelementptr inbounds i8, ptr %0, i64 47788
  %21 = load i32, ptr %20, align 4
  %.not5.i = icmp ne i32 %21, 0
  %22 = zext i1 %.not5.i to i32
  %spec.select = add nsw i32 %1, %22
  br label %23

23:                                               ; preds = %19, %14
  %.119 = phi i32 [ %1, %14 ], [ %spec.select, %19 ]
  %24 = and i32 %17, 1
  %.not6.i = icmp eq i32 %24, 0
  br i1 %.not6.i, label %sub8x8_adjust_offset.exit, label %25

25:                                               ; preds = %23
  %26 = getelementptr inbounds i8, ptr %0, i64 47784
  %27 = load i32, ptr %26, align 4
  %.not7.i = icmp ne i32 %27, 0
  %28 = zext i1 %.not7.i to i32
  %spec.select20 = add nsw i32 %2, %28
  br label %sub8x8_adjust_offset.exit

sub8x8_adjust_offset.exit:                        ; preds = %25, %5, %23
  %.018 = phi i32 [ %.119, %23 ], [ %1, %5 ], [ %.119, %25 ]
  %.0 = phi i32 [ %2, %23 ], [ %2, %5 ], [ %spec.select20, %25 ]
  %29 = mul nsw i32 %10, %1
  %30 = add nsw i32 %29, %2
  %31 = shl i32 %30, 2
  %32 = sext i32 %31 to i64
  %33 = getelementptr inbounds i8, ptr %8, i64 %32
  %34 = getelementptr i8, ptr %0, i64 7960
  %.val = load ptr, ptr %34, align 8
  %35 = getelementptr i8, ptr %.val, i64 192
  %.val.val = load i32, ptr %35, align 8
  %36 = zext i8 %3 to i64
  %37 = getelementptr inbounds [19 x i32], ptr @tx_size_wide, i64 0, i64 %36
  %38 = load i32, ptr %37, align 4
  %39 = getelementptr inbounds [19 x i32], ptr @tx_size_high, i64 0, i64 %36
  %40 = load i32, ptr %39, align 4
  %41 = getelementptr inbounds i8, ptr %0, i64 47784
  %42 = load i32, ptr %41, align 4
  %43 = getelementptr inbounds i8, ptr %0, i64 47788
  %44 = load i32, ptr %43, align 4
  %45 = sub nsw i32 2, %44
  %46 = shl i32 %.018, %45
  %47 = sub nsw i32 2, %42
  %48 = shl i32 %.0, %47
  %49 = ashr i32 %40, %44
  %50 = ashr i32 %38, %42
  %51 = getelementptr inbounds i8, ptr %0, i64 47780
  store i32 0, ptr %51, align 4
  %52 = or i32 %.0, %.018
  %or.cond.i = icmp eq i32 %52, 0
  br i1 %or.cond.i, label %53, label %56

53:                                               ; preds = %sub8x8_adjust_offset.exit
  %54 = getelementptr inbounds i8, ptr %0, i64 47776
  store i32 %50, ptr %54, align 4
  %55 = getelementptr inbounds i8, ptr %0, i64 47772
  store i32 %49, ptr %55, align 4
  br label %64

56:                                               ; preds = %sub8x8_adjust_offset.exit
  %57 = add nsw i32 %48, %50
  %58 = getelementptr inbounds i8, ptr %0, i64 47776
  %59 = load i32, ptr %58, align 4
  %..i = tail call i32 @llvm.smax.i32(i32 %57, i32 %59)
  store i32 %..i, ptr %58, align 4
  %60 = add nsw i32 %46, %49
  %61 = getelementptr inbounds i8, ptr %0, i64 47772
  %62 = load i32, ptr %61, align 4
  %63 = tail call i32 @llvm.smax.i32(i32 %60, i32 %62)
  store i32 %63, ptr %61, align 4
  br label %64

64:                                               ; preds = %56, %53
  %65 = shl nsw i32 %46, 5
  %66 = add nsw i32 %65, %48
  %67 = sext i32 %66 to i64
  %68 = getelementptr inbounds i16, ptr %6, i64 %67
  %69 = and i32 %.val.val, 8
  %.not.i14 = icmp eq i32 %69, 0
  %70 = icmp eq i32 %42, 1
  %71 = icmp eq i32 %44, 1
  br i1 %.not.i14, label %cfl_subsampling_lbd.exit.i, label %cfl_subsampling_hbd.exit.i

cfl_subsampling_hbd.exit.i:                       ; preds = %64
  %cfl_get_luma_subsampling_420_hbd_c.subfn_420.cfl_get_luma_subsampling_422_hbd_c.subfn_422.i = select i1 %71, ptr @cfl_get_luma_subsampling_420_hbd_c.subfn_420, ptr @cfl_get_luma_subsampling_422_hbd_c.subfn_422
  %cfl_get_luma_subsampling_420_hbd_c.subfn_420.sink.i = select i1 %70, ptr %cfl_get_luma_subsampling_420_hbd_c.subfn_420.cfl_get_luma_subsampling_422_hbd_c.subfn_422.i, ptr @cfl_get_luma_subsampling_444_hbd_c.subfn_444
  %72 = getelementptr inbounds [19 x ptr], ptr %cfl_get_luma_subsampling_420_hbd_c.subfn_420.sink.i, i64 0, i64 %36
  %.0.i.i = load ptr, ptr %72, align 8
  %73 = ptrtoint ptr %33 to i64
  %74 = shl i64 %73, 1
  %75 = inttoptr i64 %74 to ptr
  tail call void %.0.i.i(ptr noundef %75, i32 noundef %10, ptr noundef nonnull %68) #9
  br label %cfl_store.exit

cfl_subsampling_lbd.exit.i:                       ; preds = %64
  %cfl_get_luma_subsampling_420_lbd_c.subfn_420.cfl_get_luma_subsampling_422_lbd_c.subfn_422.i = select i1 %71, ptr @cfl_get_luma_subsampling_420_lbd_c.subfn_420, ptr @cfl_get_luma_subsampling_422_lbd_c.subfn_422
  %cfl_get_luma_subsampling_420_lbd_c.subfn_420.sink.i = select i1 %70, ptr %cfl_get_luma_subsampling_420_lbd_c.subfn_420.cfl_get_luma_subsampling_422_lbd_c.subfn_422.i, ptr @cfl_get_luma_subsampling_444_lbd_c.subfn_444
  %76 = getelementptr inbounds [19 x ptr], ptr %cfl_get_luma_subsampling_420_lbd_c.subfn_420.sink.i, i64 0, i64 %36
  %.0.i53.i = load ptr, ptr %76, align 8
  tail call void %.0.i53.i(ptr noundef %33, i32 noundef %10, ptr noundef nonnull %68) #9
  br label %cfl_store.exit

cfl_store.exit:                                   ; preds = %cfl_subsampling_hbd.exit.i, %cfl_subsampling_lbd.exit.i
  ret void
}